; Function Attrs: mustprogress uwtable
define internal void @_ZNK6google8protobuf8compiler3cpp12_GLOBAL__N_115SingularMessage8MakeVarsEv(ptr noalias nocapture writeonly sret(%"class.std::vector.76") align 8 %agg.result, ptr nocapture noundef nonnull readonly align 8 dereferenceable(106) %this) unnamed_addr #3 align 2 {
entry:
  %field_ = getelementptr inbounds i8, ptr %this, i64 88
  %0 = load ptr, ptr %field_, align 8
  %opts_ = getelementptr inbounds i8, ptr %this, i64 96
  %1 = load ptr, ptr %opts_, align 8
  %is_weak_.i = getelementptr inbounds i8, ptr %this, i64 75
  %2 = load i8, ptr %is_weak_.i, align 1
  %3 = and i8 %2, 1
  %tobool.i = icmp ne i8 %3, 0
  tail call fastcc void @_ZN6google8protobuf8compiler3cpp12_GLOBAL__N_14VarsEPKNS0_15FieldDescriptorERKNS2_7OptionsEb(ptr noalias align 8 %agg.result, ptr noundef %0, ptr noundef nonnull align 8 dereferenceable(206) %1, i1 noundef zeroext %tobool.i)
  ret void
}